; ModuleID = 'bench/linux/original/scsi_lib_dma.ll'
source_filename = "bench/linux/original/scsi_lib_dma.ll"
target datalayout = "e-m:e-p270:32:32-p271:32:32-p272:64:64-i64:64-i128:128-f80:128-n8:16:32:64-S128"
target triple = "x86_64-unknown-linux-gnu"

module asm ".section \22.export_symbol\22,\22a\22 ; __export_symbol_scsi_dma_map: ; .asciz \22\22 ; .asciz \22\22 ; .balign 8 ; .quad scsi_dma_map ; .previous"
module asm ".section \22.export_symbol\22,\22a\22 ; __export_symbol_scsi_dma_unmap: ; .asciz \22\22 ; .asciz \22\22 ; .balign 8 ; .quad scsi_dma_unmap ; .previous"

@__UNIQUE_ID___addressable_scsi_dma_map425 = internal global ptr @scsi_dma_map, section ".discard.addressable", align 8
@__UNIQUE_ID___addressable_scsi_dma_unmap426 = internal global ptr @scsi_dma_unmap, section ".discard.addressable", align 8
@llvm.compiler.used = appending global [2 x ptr] [ptr @__UNIQUE_ID___addressable_scsi_dma_map425, ptr @__UNIQUE_ID___addressable_scsi_dma_unmap426], section "llvm.metadata"

; Function Attrs: fn_ret_thunk_extern nounwind null_pointer_is_valid
define dso_local i32 @scsi_dma_map(ptr nocapture noundef readonly %0) #0 align 16 {
  %2 = getelementptr inbounds i8, ptr %0, i64 208
  %3 = load i32, ptr %2, align 8
  %4 = icmp eq i32 %3, 0
  br i1 %4, label %17, label %5

5:                                                ; preds = %1
  %6 = load ptr, ptr %0, align 8
  %7 = load ptr, ptr %6, align 8
  %8 = getelementptr inbounds i8, ptr %7, i64 2056
  %9 = load ptr, ptr %8, align 8
  %10 = getelementptr inbounds i8, ptr %0, i64 200
  %11 = load ptr, ptr %10, align 8
  %12 = getelementptr inbounds i8, ptr %0, i64 160
  %13 = load i32, ptr %12, align 8
  %14 = tail call i32 @dma_map_sg_attrs(ptr noundef %9, ptr noundef %11, i32 noundef %3, i32 noundef %13, i64 noundef 0) #2
  %15 = icmp eq i32 %14, 0
  %16 = select i1 %15, i32 -12, i32 %14
  br label %17

17:                                               ; preds = %5, %1
  %18 = phi i32 [ 0, %1 ], [ %16, %5 ]
  ret i32 %18
}

; Function Attrs: null_pointer_is_valid
declare dso_local i32 @dma_map_sg_attrs(ptr noundef, ptr noundef, i32 noundef, i32 noundef, i64 noundef) local_unnamed_addr #1

; Function Attrs: fn_ret_thunk_extern nounwind null_pointer_is_valid
define dso_local void @scsi_dma_unmap(ptr nocapture noundef readonly %0) #0 align 16 {
  %2 = getelementptr inbounds i8, ptr %0, i64 208
  %3 = load i32, ptr %2, align 8
  %4 = icmp eq i32 %3, 0
  br i1 %4, label %14, label %5

5:                                                ; preds = %1
  %6 = load ptr, ptr %0, align 8
  %7 = load ptr, ptr %6, align 8
  %8 = getelementptr inbounds i8, ptr %7, i64 2056
  %9 = load ptr, ptr %8, align 8
  %10 = getelementptr inbounds i8, ptr %0, i64 200
  %11 = load ptr, ptr %10, align 8
  %12 = getelementptr inbounds i8, ptr %0, i64 160
  %13 = load i32, ptr %12, align 8
  tail call void @dma_unmap_sg_attrs(ptr noundef %9, ptr noundef %11, i32 noundef %3, i32 noundef %13, i64 noundef 0) #2
  br label %14

14:                                               ; preds = %5, %1
  ret void
}

; Function Attrs: null_pointer_is_valid
declare dso_local void @dma_unmap_sg_attrs(ptr noundef, ptr noundef, i32 noundef, i32 noundef, i64 noundef) local_unnamed_addr #1


!llvm.module.flags = !{!0, !1, !2, !3, !4}

!0 = !{i32 1, !"wchar_size", i32 2}
!1 = !{i32 8, !"cf-protection-branch", i32 1}
!2 = !{i32 4, !"function_return_thunk_extern", i32 1}
!3 = !{i32 4, !"indirect_branch_cs_prefix", i32 1}
!4 = !{i32 4, !"SkipRaxSetup", i32 1}
